target datalayout = "e-m:e-p270:32:32-p271:32:32-p272:64:64-i64:64-i128:128-f80:128-n8:16:32:64-S128"
target triple = "x86_64-pc-linux-gnu"

%struct.OpusPsyContext = type { ptr, ptr, ptr, ptr, [2 x [21 x %struct.OpusBandExcitation]], [2 x [21 x %struct.FFBesselFilter]], [2 x [21 x %struct.FFBesselFilter]], [146 x ptr], i32, [4 x ptr], [4 x ptr], [4 x ptr], i32, [12 x i8], [2048 x float], float, i64, i64, %struct.OpusPacketInfo, i32, i32, i32, float, ptr, i32, [12 x i8] }
%struct.OpusBandExcitation = type { float, float, float }
%struct.FFBesselFilter = type { [3 x float], [2 x float], [3 x float], [3 x float] }
%struct.OpusPacketInfo = type { i32, i32, i32, i32 }
%struct.OpusPsyStep = type { i32, i32, [2 x [21 x float]], [2 x [21 x float]], [21 x float], [2 x [21 x float]], float, [2 x [21 x ptr]], [2 x [960 x float]] }
%struct.AVCodecContext = type { ptr, i32, i32, ptr, i32, i32, ptr, ptr, ptr, i64, i32, i32, ptr, i32, %struct.AVRational, %struct.AVRational, %struct.AVRational, i32, i32, i32, i32, i32, %struct.AVRational, i32, i32, i32, i32, i32, i32, i32, i32, i32, i32, i32, ptr, ptr, i32, float, float, float, float, float, float, float, float, float, i32, i32, i32, i32, i32, i32, i32, i32, i32, i32, i32, i32, ptr, ptr, ptr, i32, i32, i32, i32, i32, i32, i32, i32, i32, i32, %struct.AVChannelLayout, i32, i32, i32, i32, i32, i32, i32, i32, ptr, i32, i32, i32, float, float, i32, i32, i32, i32, i32, ptr, i64, i64, float, float, i32, i32, ptr, ptr, i32, i32, i32, i32, i32, ptr, ptr, ptr, ptr, i32, i32, [8 x i64], i32, i32, i32, i32, i32, i32, i32, ptr, ptr, i32, i32, i32, i32, i32, i32, i32, i32, i32, i32, ptr, ptr, i32, i32, ptr, ptr, ptr, ptr, i32, i32, i64, i32, i32, i64, ptr, i64, ptr, i32, ptr, i32 }
%struct.AVRational = type { i32, i32 }
%struct.AVChannelLayout = type { i32, i32, %union.anon, ptr }
%union.anon = type { i64 }
%struct.CeltFrame = type { ptr, [4 x ptr], [4 x ptr], ptr, [2 x %struct.CeltBlock], ptr, %struct.OpusDSP, i32, i32, i32, i32, i32, i32, i32, i32, i32, i32, i32, i32, [21 x i32], i32, i32, i32, i32, i32, i32, i32, i32, i32, i32, i32, i32, i32, float, i32, i32, i32, [21 x i32], [21 x i32], [21 x i32], [21 x i32], [21 x i32], [12 x i8] }
%struct.CeltBlock = type { [21 x float], [21 x float], [21 x float], [2 x [21 x float]], [21 x i8], [7 x i8], [2048 x float], [960 x float], [128 x float], [960 x float], i32, [3 x float], i32, [3 x float], i32, [3 x float], float, [12 x i8] }
%struct.OpusDSP = type { ptr, ptr }

; Function Attrs: nounwind uwtable
define void @ff_opus_psy_postencode_update(ptr noundef %0, ptr noundef %1) #0 {
  %3 = alloca ptr, align 8
  %4 = alloca ptr, align 8
  %5 = alloca i32, align 4
  %6 = alloca i32, align 4
  %7 = alloca i32, align 4
  %8 = alloca [145 x ptr], align 16
  %9 = alloca float, align 4
  %10 = alloca i32, align 4
  store ptr %0, ptr %3, align 8, !tbaa !4
  store ptr %1, ptr %4, align 8, !tbaa !105
  call void @llvm.lifetime.start.p0(i64 4, ptr %5) #11
  call void @llvm.lifetime.start.p0(i64 4, ptr %6) #11
  %11 = load ptr, ptr %3, align 8, !tbaa !4
  %12 = getelementptr inbounds nuw %struct.OpusPsyContext, ptr %11, i32 0, i32 18
  %13 = getelementptr inbounds nuw %struct.OpusPacketInfo, ptr %12, i32 0, i32 2
  %14 = load i32, ptr %13, align 8, !tbaa !36
  %15 = add nsw i32 %14, 2
  %16 = shl i32 1, %15
  %17 = mul nsw i32 30, %16
  store i32 %17, ptr %6, align 4, !tbaa !26
  call void @llvm.lifetime.start.p0(i64 4, ptr %7) #11
  %18 = load ptr, ptr %3, align 8, !tbaa !4
  %19 = getelementptr inbounds nuw %struct.OpusPsyContext, ptr %18, i32 0, i32 18
  %20 = getelementptr inbounds nuw %struct.OpusPacketInfo, ptr %19, i32 0, i32 3
  %21 = load i32, ptr %20, align 4, !tbaa !34
  %22 = load i32, ptr %6, align 4, !tbaa !26
  %23 = sdiv i32 %22, 120
  %24 = mul nsw i32 %21, %23
  store i32 %24, ptr %7, align 4, !tbaa !26
  call void @llvm.lifetime.start.p0(i64 1160, ptr %8) #11
  call void @llvm.lifetime.start.p0(i64 4, ptr %9) #11
  store i32 0, ptr %5, align 4, !tbaa !26
  br label %25

25:                                               ; preds = %36, %2
  %26 = load i32, ptr %5, align 4, !tbaa !26
  %27 = load i32, ptr %7, align 4, !tbaa !26
  %28 = icmp slt i32 %26, %27
  br i1 %28, label %29, label %39

29:                                               ; preds = %25
  %30 = load ptr, ptr %3, align 8, !tbaa !4
  %31 = getelementptr inbounds nuw %struct.OpusPsyContext, ptr %30, i32 0, i32 7
  %32 = load i32, ptr %5, align 4, !tbaa !26
  %33 = sext i32 %32 to i64
  %34 = getelementptr inbounds [146 x ptr], ptr %31, i64 0, i64 %33
  %35 = load ptr, ptr %34, align 8, !tbaa !28
  call void @llvm.memset.p0.i64(ptr align 8 %35, i8 0, i64 8616, i1 false)
  br label %36

36:                                               ; preds = %29
  %37 = load i32, ptr %5, align 4, !tbaa !26
  %38 = add nsw i32 %37, 1
  store i32 %38, ptr %5, align 4, !tbaa !26
  br label %25, !llvm.loop !150

39:                                               ; preds = %25
  store i32 0, ptr %5, align 4, !tbaa !26
  br label %40

40:                                               ; preds = %56, %39
  %41 = load i32, ptr %5, align 4, !tbaa !26
  %42 = load ptr, ptr %3, align 8, !tbaa !4
  %43 = getelementptr inbounds nuw %struct.OpusPsyContext, ptr %42, i32 0, i32 8
  %44 = load i32, ptr %43, align 8, !tbaa !23
  %45 = icmp slt i32 %41, %44
  br i1 %45, label %46, label %59

46:                                               ; preds = %40
  %47 = load ptr, ptr %3, align 8, !tbaa !4
  %48 = getelementptr inbounds nuw %struct.OpusPsyContext, ptr %47, i32 0, i32 7
  %49 = load i32, ptr %5, align 4, !tbaa !26
  %50 = sext i32 %49 to i64
  %51 = getelementptr inbounds [146 x ptr], ptr %48, i64 0, i64 %50
  %52 = load ptr, ptr %51, align 8, !tbaa !28
  %53 = load i32, ptr %5, align 4, !tbaa !26
  %54 = sext i32 %53 to i64
  %55 = getelementptr inbounds [145 x ptr], ptr %8, i64 0, i64 %54
  store ptr %52, ptr %55, align 8, !tbaa !77
  br label %56

56:                                               ; preds = %46
  %57 = load i32, ptr %5, align 4, !tbaa !26
  %58 = add nsw i32 %57, 1
  store i32 %58, ptr %5, align 4, !tbaa !26
  br label %40, !llvm.loop !151

59:                                               ; preds = %40
  store i32 0, ptr %5, align 4, !tbaa !26
  br label %60

60:                                               ; preds = %90, %59
  %61 = load i32, ptr %5, align 4, !tbaa !26
  %62 = load ptr, ptr %3, align 8, !tbaa !4
  %63 = getelementptr inbounds nuw %struct.OpusPsyContext, ptr %62, i32 0, i32 8
  %64 = load i32, ptr %63, align 8, !tbaa !23
  %65 = icmp slt i32 %61, %64
  br i1 %65, label %66, label %93

66:                                               ; preds = %60
  call void @llvm.lifetime.start.p0(i64 4, ptr %10) #11
  %67 = load i32, ptr %5, align 4, !tbaa !26
  %68 = load i32, ptr %7, align 4, !tbaa !26
  %69 = sub nsw i32 %67, %68
  store i32 %69, ptr %10, align 4, !tbaa !26
  %70 = load i32, ptr %5, align 4, !tbaa !26
  %71 = sext i32 %70 to i64
  %72 = getelementptr inbounds [145 x ptr], ptr %8, i64 0, i64 %71
  %73 = load ptr, ptr %72, align 8, !tbaa !77
  %74 = load ptr, ptr %3, align 8, !tbaa !4
  %75 = getelementptr inbounds nuw %struct.OpusPsyContext, ptr %74, i32 0, i32 7
  %76 = load i32, ptr %10, align 4, !tbaa !26
  %77 = icmp slt i32 %76, 0
  br i1 %77, label %78, label %84

78:                                               ; preds = %66
  %79 = load ptr, ptr %3, align 8, !tbaa !4
  %80 = getelementptr inbounds nuw %struct.OpusPsyContext, ptr %79, i32 0, i32 8
  %81 = load i32, ptr %80, align 8, !tbaa !23
  %82 = load i32, ptr %10, align 4, !tbaa !26
  %83 = add nsw i32 %81, %82
  br label %86

84:                                               ; preds = %66
  %85 = load i32, ptr %10, align 4, !tbaa !26
  br label %86

86:                                               ; preds = %84, %78
  %87 = phi i32 [ %83, %78 ], [ %85, %84 ]
  %88 = sext i32 %87 to i64
  %89 = getelementptr inbounds [146 x ptr], ptr %75, i64 0, i64 %88
  store ptr %73, ptr %89, align 8, !tbaa !28
  call void @llvm.lifetime.end.p0(i64 4, ptr %10) #11
  br label %90

90:                                               ; preds = %86
  %91 = load i32, ptr %5, align 4, !tbaa !26
  %92 = add nsw i32 %91, 1
  store i32 %92, ptr %5, align 4, !tbaa !26
  br label %60, !llvm.loop !152

93:                                               ; preds = %60
  %94 = load i32, ptr %7, align 4, !tbaa !26
  store i32 %94, ptr %5, align 4, !tbaa !26
  br label %95

95:                                               ; preds = %112, %93
  %96 = load i32, ptr %5, align 4, !tbaa !26
  %97 = load ptr, ptr %3, align 8, !tbaa !4
  %98 = getelementptr inbounds nuw %struct.OpusPsyContext, ptr %97, i32 0, i32 19
  %99 = load i32, ptr %98, align 8, !tbaa !13
  %100 = icmp slt i32 %96, %99
  br i1 %100, label %101, label %115

101:                                              ; preds = %95
  %102 = load i32, ptr %7, align 4, !tbaa !26
  %103 = load ptr, ptr %3, align 8, !tbaa !4
  %104 = getelementptr inbounds nuw %struct.OpusPsyContext, ptr %103, i32 0, i32 7
  %105 = load i32, ptr %5, align 4, !tbaa !26
  %106 = sext i32 %105 to i64
  %107 = getelementptr inbounds [146 x ptr], ptr %104, i64 0, i64 %106
  %108 = load ptr, ptr %107, align 8, !tbaa !28
  %109 = getelementptr inbounds nuw %struct.OpusPsyStep, ptr %108, i32 0, i32 0
  %110 = load i32, ptr %109, align 8, !tbaa !42
  %111 = sub nsw i32 %110, %102
  store i32 %111, ptr %109, align 8, !tbaa !42
  br label %112

112:                                              ; preds = %101
  %113 = load i32, ptr %5, align 4, !tbaa !26
  %114 = add nsw i32 %113, 1
  store i32 %114, ptr %5, align 4, !tbaa !26
  br label %95, !llvm.loop !153

115:                                              ; preds = %95
  %116 = load ptr, ptr %3, align 8, !tbaa !4
  %117 = getelementptr inbounds nuw %struct.OpusPsyContext, ptr %116, i32 0, i32 0
  %118 = load ptr, ptr %117, align 16, !tbaa !43
  %119 = getelementptr inbounds nuw %struct.AVCodecContext, ptr %118, i32 0, i32 9
  %120 = load i64, ptr %119, align 8, !tbaa !140
  %121 = load ptr, ptr %3, align 8, !tbaa !4
  %122 = getelementptr inbounds nuw %struct.OpusPsyContext, ptr %121, i32 0, i32 0
  %123 = load ptr, ptr %122, align 16, !tbaa !43
  %124 = getelementptr inbounds nuw %struct.AVCodecContext, ptr %123, i32 0, i32 69
  %125 = load i32, ptr %124, align 8, !tbaa !104
  %126 = load i32, ptr %6, align 4, !tbaa !26
  %127 = sdiv i32 %125, %126
  %128 = sext i32 %127 to i64
  %129 = sdiv i64 %120, %128
  %130 = sitofp i64 %129 to float
  store float %130, ptr %9, align 4, !tbaa !11
  store i32 0, ptr %5, align 4, !tbaa !26
  br label %131

131:                                              ; preds = %163, %115
  %132 = load i32, ptr %5, align 4, !tbaa !26
  %133 = load ptr, ptr %3, align 8, !tbaa !4
  %134 = getelementptr inbounds nuw %struct.OpusPsyContext, ptr %133, i32 0, i32 18
  %135 = getelementptr inbounds nuw %struct.OpusPacketInfo, ptr %134, i32 0, i32 3
  %136 = load i32, ptr %135, align 4, !tbaa !34
  %137 = icmp slt i32 %132, %136
  br i1 %137, label %138, label %166

138:                                              ; preds = %131
  %139 = load ptr, ptr %4, align 8, !tbaa !105
  %140 = load i32, ptr %5, align 4, !tbaa !26
  %141 = sext i32 %140 to i64
  %142 = getelementptr inbounds %struct.CeltFrame, ptr %139, i64 %141
  %143 = getelementptr inbounds nuw %struct.CeltFrame, ptr %142, i32 0, i32 25
  %144 = load i32, ptr %143, align 16, !tbaa !130
  %145 = sitofp i32 %144 to float
  %146 = load ptr, ptr %3, align 8, !tbaa !4
  %147 = getelementptr inbounds nuw %struct.OpusPsyContext, ptr %146, i32 0, i32 15
  %148 = load float, ptr %147, align 16, !tbaa !143
  %149 = fadd nsz float %148, %145
  store float %149, ptr %147, align 16, !tbaa !143
  %150 = load float, ptr %9, align 4, !tbaa !11
  %151 = load ptr, ptr %4, align 8, !tbaa !105
  %152 = load i32, ptr %5, align 4, !tbaa !26
  %153 = sext i32 %152 to i64
  %154 = getelementptr inbounds %struct.CeltFrame, ptr %151, i64 %153
  %155 = getelementptr inbounds nuw %struct.CeltFrame, ptr %154, i32 0, i32 34
  %156 = load i32, ptr %155, align 4, !tbaa !116
  %157 = sitofp i32 %156 to float
  %158 = fdiv nsz float %150, %157
  %159 = load ptr, ptr %3, align 8, !tbaa !4
  %160 = getelementptr inbounds nuw %struct.OpusPsyContext, ptr %159, i32 0, i32 22
  %161 = load float, ptr %160, align 4, !tbaa !141
  %162 = fmul nsz float %161, %158
  store float %162, ptr %160, align 4, !tbaa !141
  br label %163

163:                                              ; preds = %138
  %164 = load i32, ptr %5, align 4, !tbaa !26
  %165 = add nsw i32 %164, 1
  store i32 %165, ptr %5, align 4, !tbaa !26
  br label %131, !llvm.loop !154

166:                                              ; preds = %131
  %167 = load ptr, ptr %3, align 8, !tbaa !4
  %168 = getelementptr inbounds nuw %struct.OpusPsyContext, ptr %167, i32 0, i32 18
  %169 = getelementptr inbounds nuw %struct.OpusPacketInfo, ptr %168, i32 0, i32 3
  %170 = load i32, ptr %169, align 4, !tbaa !34
  %171 = add nsw i32 %170, 1
  %172 = sitofp i32 %171 to float
  %173 = load ptr, ptr %3, align 8, !tbaa !4
  %174 = getelementptr inbounds nuw %struct.OpusPsyContext, ptr %173, i32 0, i32 15
  %175 = load float, ptr %174, align 16, !tbaa !143
  %176 = fdiv nsz float %175, %172
  store float %176, ptr %174, align 16, !tbaa !143
  %177 = load ptr, ptr %3, align 8, !tbaa !4
  %178 = getelementptr inbounds nuw %struct.OpusPsyContext, ptr %177, i32 0, i32 20
  store i32 0, ptr %178, align 4, !tbaa !27
  %179 = load i32, ptr %7, align 4, !tbaa !26
  %180 = load ptr, ptr %3, align 8, !tbaa !4
  %181 = getelementptr inbounds nuw %struct.OpusPsyContext, ptr %180, i32 0, i32 19
  %182 = load i32, ptr %181, align 8, !tbaa !13
  %183 = sub nsw i32 %182, %179
  store i32 %183, ptr %181, align 8, !tbaa !13
  %184 = load ptr, ptr %3, align 8, !tbaa !4
  %185 = getelementptr inbounds nuw %struct.OpusPsyContext, ptr %184, i32 0, i32 18
  %186 = getelementptr inbounds nuw %struct.OpusPacketInfo, ptr %185, i32 0, i32 3
  %187 = load i32, ptr %186, align 4, !tbaa !34
  %188 = sext i32 %187 to i64
  %189 = load ptr, ptr %3, align 8, !tbaa !4
  %190 = getelementptr inbounds nuw %struct.OpusPsyContext, ptr %189, i32 0, i32 17
  %191 = load i64, ptr %190, align 16, !tbaa !155
  %192 = add nsw i64 %191, %188
  store i64 %192, ptr %190, align 16, !tbaa !155
  %193 = load ptr, ptr %3, align 8, !tbaa !4
  %194 = getelementptr inbounds nuw %struct.OpusPsyContext, ptr %193, i32 0, i32 24
  store i32 0, ptr %194, align 16, !tbaa !100
  call void @llvm.lifetime.end.p0(i64 4, ptr %9) #11
  call void @llvm.lifetime.end.p0(i64 1160, ptr %8) #11
  call void @llvm.lifetime.end.p0(i64 4, ptr %7) #11
  call void @llvm.lifetime.end.p0(i64 4, ptr %6) #11
  call void @llvm.lifetime.end.p0(i64 4, ptr %5) #11
  ret void
}