; Function Attrs: nofree norecurse nosync nounwind memory(readwrite, inaccessiblemem: none) uwtable
define void @ff_opus_psy_postencode_update(ptr noundef captures(none) %0, ptr noundef readonly captures(none) %1) local_unnamed_addr #5 {
  %3 = alloca [145 x ptr], align 16
  %4 = getelementptr inbounds nuw i8, ptr %0, i64 13744
  %5 = load i32, ptr %4, align 8, !tbaa !96
  %6 = add nsw i32 %5, 2
  %7 = shl i32 30, %6
  %8 = getelementptr inbounds nuw i8, ptr %0, i64 13748
  %9 = load i32, ptr %8, align 4, !tbaa !95
  %10 = sdiv i32 %7, 120
  %11 = mul nsw i32 %10, %9
  call void @llvm.lifetime.start.p0(i64 1160, ptr nonnull %3) #13
  %12 = icmp sgt i32 %11, 0
  br i1 %12, label %.lr.ph, label %.preheader58

.lr.ph:                                           ; preds = %2
  %13 = getelementptr inbounds nuw i8, ptr %0, i64 4232
  %wide.trip.count = zext nneg i32 %11 to i64
  br label %17

.preheader58:                                     ; preds = %17, %2
  %14 = getelementptr inbounds nuw i8, ptr %0, i64 5400
  %15 = load i32, ptr %14, align 8, !tbaa !18
  %16 = icmp sgt i32 %15, 0
  br i1 %16, label %.lr.ph66, label %.preheader

17:                                               ; preds = %.lr.ph, %17
  %indvars.iv = phi i64 [ 0, %.lr.ph ], [ %indvars.iv.next, %17 ]
  %18 = getelementptr inbounds nuw [146 x ptr], ptr %13, i64 0, i64 %indvars.iv
  %19 = load ptr, ptr %18, align 8, !tbaa !22
  tail call void @llvm.memset.p0.i64(ptr noundef nonnull align 8 dereferenceable(8616) %19, i8 0, i64 8616, i1 false)
  %indvars.iv.next = add nuw nsw i64 %indvars.iv, 1
  %exitcond.not = icmp eq i64 %indvars.iv.next, %wide.trip.count
  br i1 %exitcond.not, label %.preheader58, label %17, !llvm.loop !145

.lr.ph66:                                         ; preds = %.preheader58
  %20 = getelementptr inbounds nuw i8, ptr %0, i64 4232
  %21 = zext nneg i32 %15 to i64
  %22 = shl nuw nsw i64 %21, 3
  call void @llvm.memcpy.p0.p0.i64(ptr nonnull align 16 %3, ptr nonnull align 8 %20, i64 %22, i1 false), !tbaa !65
  %23 = getelementptr inbounds nuw i8, ptr %0, i64 4232
  %24 = sext i32 %11 to i64
  %wide.trip.count86 = zext nneg i32 %15 to i64
  %25 = zext nneg i32 %15 to i64
  br label %31

.preheader:                                       ; preds = %31, %.preheader58
  %26 = getelementptr inbounds nuw i8, ptr %0, i64 13752
  %27 = load i32, ptr %26, align 8, !tbaa !4
  %28 = icmp slt i32 %11, %27
  br i1 %28, label %.lr.ph68, label %._crit_edge

.lr.ph68:                                         ; preds = %.preheader
  %29 = getelementptr inbounds nuw i8, ptr %0, i64 4232
  %30 = sext i32 %11 to i64
  %wide.trip.count91 = sext i32 %27 to i64
  br label %39

31:                                               ; preds = %.lr.ph66, %31
  %indvars.iv83 = phi i64 [ 0, %.lr.ph66 ], [ %indvars.iv.next84, %31 ]
  %32 = sub nsw i64 %indvars.iv83, %24
  %33 = getelementptr inbounds nuw [145 x ptr], ptr %3, i64 0, i64 %indvars.iv83
  %34 = load ptr, ptr %33, align 8, !tbaa !65
  %35 = icmp slt i64 %32, 0
  %36 = select i1 %35, i64 %25, i64 0
  %37 = add nsw i64 %36, %32
  %38 = getelementptr inbounds [146 x ptr], ptr %23, i64 0, i64 %37
  store ptr %34, ptr %38, align 8, !tbaa !22
  %indvars.iv.next84 = add nuw nsw i64 %indvars.iv83, 1
  %exitcond87.not = icmp eq i64 %indvars.iv.next84, %wide.trip.count86
  br i1 %exitcond87.not, label %.preheader, label %31, !llvm.loop !146

39:                                               ; preds = %.lr.ph68, %39
  %indvars.iv88 = phi i64 [ %30, %.lr.ph68 ], [ %indvars.iv.next89, %39 ]
  %40 = getelementptr inbounds [146 x ptr], ptr %29, i64 0, i64 %indvars.iv88
  %41 = load ptr, ptr %40, align 8, !tbaa !22
  %42 = load i32, ptr %41, align 8, !tbaa !24
  %43 = sub nsw i32 %42, %11
  store i32 %43, ptr %41, align 8, !tbaa !24
  %indvars.iv.next89 = add nsw i64 %indvars.iv88, 1
  %exitcond92.not = icmp eq i64 %indvars.iv.next89, %wide.trip.count91
  br i1 %exitcond92.not, label %._crit_edge, label %39, !llvm.loop !147

._crit_edge:                                      ; preds = %39, %.preheader
  %44 = load ptr, ptr %0, align 16, !tbaa !26
  %45 = getelementptr inbounds nuw i8, ptr %44, i64 56
  %46 = load i64, ptr %45, align 8, !tbaa !136
  %47 = getelementptr inbounds nuw i8, ptr %44, i64 344
  %48 = load i32, ptr %47, align 8, !tbaa !90
  %49 = sdiv i32 %48, %7
  %50 = sext i32 %49 to i64
  %51 = sdiv i64 %46, %50
  %52 = sitofp i64 %51 to float
  %53 = load i32, ptr %8, align 4, !tbaa !95
  %54 = icmp sgt i32 %53, 0
  %55 = getelementptr inbounds nuw i8, ptr %0, i64 13712
  br i1 %54, label %.lr.ph72, label %._crit_edge._crit_edge

._crit_edge._crit_edge:                           ; preds = %._crit_edge
  %.pre = load float, ptr %55, align 16, !tbaa !139
  br label %70

.lr.ph72:                                         ; preds = %._crit_edge
  %56 = getelementptr inbounds nuw i8, ptr %0, i64 13764
  %.promoted = load float, ptr %55, align 16, !tbaa !139
  %.promoted76 = load float, ptr %56, align 4, !tbaa !137
  %wide.trip.count96 = zext nneg i32 %53 to i64
  br label %57

57:                                               ; preds = %.lr.ph72, %57
  %indvars.iv93 = phi i64 [ 0, %.lr.ph72 ], [ %indvars.iv.next94, %57 ]
  %58 = phi float [ %.promoted76, %.lr.ph72 ], [ %69, %57 ]
  %59 = phi float [ %.promoted, %.lr.ph72 ], [ %64, %57 ]
  %60 = getelementptr inbounds nuw %struct.CeltFrame, ptr %1, i64 %indvars.iv93
  %61 = getelementptr inbounds nuw i8, ptr %60, i64 34048
  %62 = load i32, ptr %61, align 16, !tbaa !128
  %63 = sitofp i32 %62 to float
  %64 = fadd nsz float %59, %63
  %65 = getelementptr inbounds nuw i8, ptr %60, i64 34084
  %66 = load i32, ptr %65, align 4, !tbaa !114
  %67 = sitofp i32 %66 to float
  %68 = fdiv nsz float %52, %67
  %69 = fmul nsz float %58, %68
  %indvars.iv.next94 = add nuw nsw i64 %indvars.iv93, 1
  %exitcond97.not = icmp eq i64 %indvars.iv.next94, %wide.trip.count96
  br i1 %exitcond97.not, label %._crit_edge73, label %57, !llvm.loop !148

._crit_edge73:                                    ; preds = %57
  store float %69, ptr %56, align 4, !tbaa !137
  br label %70

70:                                               ; preds = %._crit_edge._crit_edge, %._crit_edge73
  %71 = phi float [ %.pre, %._crit_edge._crit_edge ], [ %64, %._crit_edge73 ]
  %72 = add nsw i32 %53, 1
  %73 = sitofp i32 %72 to float
  %74 = getelementptr inbounds nuw i8, ptr %0, i64 13712
  %75 = fdiv nsz float %71, %73
  store float %75, ptr %74, align 16, !tbaa !139
  %76 = getelementptr inbounds nuw i8, ptr %0, i64 13756
  store i32 0, ptr %76, align 4, !tbaa !21
  %77 = sub nsw i32 %27, %11
  store i32 %77, ptr %26, align 8, !tbaa !4
  %78 = sext i32 %53 to i64
  %79 = getelementptr inbounds nuw i8, ptr %0, i64 13728
  %80 = load i64, ptr %79, align 16, !tbaa !149
  %81 = add nsw i64 %80, %78
  store i64 %81, ptr %79, align 16, !tbaa !149
  %82 = getelementptr inbounds nuw i8, ptr %0, i64 13776
  store i32 0, ptr %82, align 16, !tbaa !103
  call void @llvm.lifetime.end.p0(i64 1160, ptr nonnull %3) #13
  ret void
}